target datalayout = "e-m:e-p270:32:32-p271:32:32-p272:64:64-i64:64-i128:128-f80:128-n8:16:32:64-S128"
target triple = "x86_64-pc-linux-gnu"

%struct.CodecMime = type { [32 x i8], i32 }

@ff_id3v2_mime_tags = external constant [0 x %struct.CodecMime], align 4

; Function Attrs: nounwind uwtable
define internal i32 @query_codec(i32 noundef %0, i32 noundef %1) #0 {
  %3 = alloca i32, align 4
  %4 = alloca i32, align 4
  %5 = alloca i32, align 4
  %6 = alloca ptr, align 8
  %7 = alloca i32, align 4
  store i32 %0, ptr %4, align 4, !tbaa !34
  store i32 %1, ptr %5, align 4, !tbaa !34
  call void @llvm.lifetime.start.p0(i64 8, ptr %6) #12
  store ptr @ff_id3v2_mime_tags, ptr %6, align 8, !tbaa !53
  %8 = load i32, ptr %4, align 4, !tbaa !34
  %9 = icmp eq i32 %8, 86017
  br i1 %9, label %10, label %11

10:                                               ; preds = %2
  store i32 1, ptr %3, align 4
  store i32 1, ptr %7, align 4
  br label %28

11:                                               ; preds = %2
  br label %12

12:                                               ; preds = %24, %11
  %13 = load ptr, ptr %6, align 8, !tbaa !53
  %14 = getelementptr inbounds nuw %struct.CodecMime, ptr %13, i32 0, i32 1
  %15 = load i32, ptr %14, align 4, !tbaa !55
  %16 = icmp ne i32 %15, 0
  br i1 %16, label %17, label %27

17:                                               ; preds = %12
  %18 = load i32, ptr %4, align 4, !tbaa !34
  %19 = load ptr, ptr %6, align 8, !tbaa !53
  %20 = getelementptr inbounds nuw %struct.CodecMime, ptr %19, i32 0, i32 1
  %21 = load i32, ptr %20, align 4, !tbaa !55
  %22 = icmp eq i32 %18, %21
  br i1 %22, label %23, label %24

23:                                               ; preds = %17
  store i32 1128878145, ptr %3, align 4
  store i32 1, ptr %7, align 4
  br label %28

24:                                               ; preds = %17
  %25 = load ptr, ptr %6, align 8, !tbaa !53
  %26 = getelementptr inbounds nuw %struct.CodecMime, ptr %25, i32 1
  store ptr %26, ptr %6, align 8, !tbaa !53
  br label %12, !llvm.loop !57

27:                                               ; preds = %12
  store i32 0, ptr %3, align 4
  store i32 1, ptr %7, align 4
  br label %28

28:                                               ; preds = %27, %23, %10
  call void @llvm.lifetime.end.p0(i64 8, ptr %6) #12
  %29 = load i32, ptr %3, align 4
  ret i32 %29
}