; Function Attrs: nofree norecurse nosync nounwind memory(none) uwtable
define internal range(i32 0, 1128878146) i32 @query_codec(i32 noundef %0, i32 %1) #1 {
  %3 = icmp eq i32 %0, 86017
  br i1 %3, label %.loopexit, label %.preheader

.preheader:                                       ; preds = %2
  %4 = load i32, ptr getelementptr inbounds nuw (i8, ptr @ff_id3v2_mime_tags, i64 32), align 4, !tbaa !83
  %.not7 = icmp eq i32 %4, 0
  br i1 %.not7, label %.loopexit, label %.lr.ph

5:                                                ; preds = %.lr.ph
  %6 = getelementptr inbounds nuw i8, ptr %.08, i64 36
  %7 = getelementptr inbounds nuw i8, ptr %.08, i64 68
  %8 = load i32, ptr %7, align 4, !tbaa !83
  %.not = icmp eq i32 %8, 0
  br i1 %.not, label %.loopexit, label %.lr.ph, !llvm.loop !85

.lr.ph:                                           ; preds = %.preheader, %5
  %9 = phi i32 [ %8, %5 ], [ %4, %.preheader ]
  %.08 = phi ptr [ %6, %5 ], [ @ff_id3v2_mime_tags, %.preheader ]
  %10 = icmp eq i32 %0, %9
  br i1 %10, label %.loopexit, label %5

.loopexit:                                        ; preds = %.lr.ph, %5, %.preheader, %2
  %.05 = phi i32 [ 1, %2 ], [ 0, %.preheader ], [ 1128878145, %.lr.ph ], [ 0, %5 ]
  ret i32 %.05
}